; Function Attrs: nounwind uwtable
define internal void @my_UnparsedEntityDeclHandler(ptr noundef captures(none) %0, ptr noundef %1, ptr noundef %2, ptr noundef %3, ptr noundef %4, ptr noundef %5) #0 {
  %7 = getelementptr i8, ptr %0, i64 72
  %.val = load ptr, ptr %7, align 8, !tbaa !36
  %8 = getelementptr i8, ptr %.val, i64 32
  %9 = load ptr, ptr %8, align 8, !tbaa !14
  %.not40 = icmp eq ptr %9, null
  br i1 %.not40, label %Py_DECREF.exit, label %10

10:                                               ; preds = %6
  %11 = tail call ptr @PyErr_Occurred() #8
  %.not25 = icmp eq ptr %11, null
  br i1 %.not25, label %12, label %Py_DECREF.exit

12:                                               ; preds = %10
  %13 = getelementptr inbounds nuw i8, ptr %0, i64 40
  %14 = load ptr, ptr %13, align 8, !tbaa !29
  %15 = icmp eq ptr %14, null
  br i1 %15, label %flush_character_buffer.exit.thread, label %16

16:                                               ; preds = %12
  %17 = getelementptr inbounds nuw i8, ptr %0, i64 52
  %18 = load i32, ptr %17, align 4, !tbaa !35
  %19 = icmp eq i32 %18, 0
  br i1 %19, label %flush_character_buffer.exit.thread, label %flush_character_buffer.exit

flush_character_buffer.exit:                      ; preds = %16
  %20 = tail call fastcc i32 @call_character_handler(ptr noundef nonnull %0, ptr noundef nonnull %14, i32 noundef %18)
  store i32 0, ptr %17, align 4, !tbaa !35
  %21 = icmp slt i32 %20, 0
  br i1 %21, label %Py_DECREF.exit, label %flush_character_buffer.exit.thread

flush_character_buffer.exit.thread:               ; preds = %12, %16, %flush_character_buffer.exit
  %22 = tail call fastcc ptr @string_intern(ptr noundef nonnull %0, ptr noundef %1)
  %23 = tail call fastcc ptr @string_intern(ptr noundef nonnull %0, ptr noundef %2)
  %24 = tail call fastcc ptr @string_intern(ptr noundef nonnull %0, ptr noundef %3)
  %25 = tail call fastcc ptr @string_intern(ptr noundef nonnull %0, ptr noundef %4)
  %26 = tail call fastcc ptr @string_intern(ptr noundef nonnull %0, ptr noundef %5)
  %27 = tail call ptr (ptr, ...) @Py_BuildValue(ptr noundef nonnull @.str.48, ptr noundef %22, ptr noundef %23, ptr noundef %24, ptr noundef %25, ptr noundef %26) #8
  %.not26 = icmp eq ptr %27, null
  br i1 %.not26, label %28, label %51

28:                                               ; preds = %flush_character_buffer.exit.thread
  %29 = load ptr, ptr @handler_info, align 16, !tbaa !40
  %.not15.i.i = icmp eq ptr %29, null
  br i1 %.not15.i.i, label %flag_error.exit, label %.lr.ph.i.i

.lr.ph.i.i:                                       ; preds = %28
  %30 = getelementptr inbounds nuw i8, ptr %0, i64 16
  br label %.lr.ph.split.us.i.i

.lr.ph.split.us.i.i:                              ; preds = %Py_DECREF.exit.us.i.i, %.lr.ph.i.i
  %31 = phi ptr [ %47, %Py_DECREF.exit.us.i.i ], [ @handler_info, %.lr.ph.i.i ]
  %32 = phi i64 [ %46, %Py_DECREF.exit.us.i.i ], [ 0, %.lr.ph.i.i ]
  %.016.us.i.i = phi i32 [ %45, %Py_DECREF.exit.us.i.i ], [ 0, %.lr.ph.i.i ]
  %33 = load ptr, ptr %7, align 8, !tbaa !36
  %34 = getelementptr ptr, ptr %33, i64 %32
  %35 = load ptr, ptr %34, align 8, !tbaa !14
  %.not14.us.i.i = icmp eq ptr %35, null
  br i1 %.not14.us.i.i, label %Py_DECREF.exit.us.i.i, label %36

36:                                               ; preds = %.lr.ph.split.us.i.i
  store ptr null, ptr %34, align 8, !tbaa !14
  %37 = load i32, ptr %35, align 8, !tbaa !13
  %.not.i.us.i.i = icmp sgt i32 %37, -1
  br i1 %.not.i.us.i.i, label %38, label %Py_DECREF.exit.us.i.i

38:                                               ; preds = %36
  %39 = add nsw i32 %37, -1
  store i32 %39, ptr %35, align 8, !tbaa !13
  %40 = icmp eq i32 %39, 0
  br i1 %40, label %41, label %Py_DECREF.exit.us.i.i

41:                                               ; preds = %38
  tail call void @_Py_Dealloc(ptr noundef nonnull %35) #8
  br label %Py_DECREF.exit.us.i.i

Py_DECREF.exit.us.i.i:                            ; preds = %41, %38, %36, %.lr.ph.split.us.i.i
  %42 = getelementptr inbounds nuw i8, ptr %31, i64 8
  %43 = load ptr, ptr %42, align 8, !tbaa !56
  %44 = load ptr, ptr %30, align 8, !tbaa !39
  tail call void %43(ptr noundef %44, ptr noundef null) #8
  %45 = add i32 %.016.us.i.i, 1
  %46 = sext i32 %45 to i64
  %47 = getelementptr [64 x %struct.HandlerInfo], ptr @handler_info, i64 0, i64 %46
  %48 = load ptr, ptr %47, align 16, !tbaa !40
  %.not.us.i.i = icmp eq ptr %48, null
  br i1 %.not.us.i.i, label %flag_error.exit, label %.lr.ph.split.us.i.i, !llvm.loop !45

flag_error.exit:                                  ; preds = %Py_DECREF.exit.us.i.i, %28
  %49 = getelementptr inbounds nuw i8, ptr %0, i64 16
  %50 = load ptr, ptr %49, align 8, !tbaa !39
  tail call void @PyExpat_XML_SetExternalEntityRefHandler(ptr noundef %50, ptr noundef nonnull @error_external_entity_ref_handler) #8
  br label %Py_DECREF.exit

51:                                               ; preds = %flush_character_buffer.exit.thread
  %52 = getelementptr inbounds nuw i8, ptr %0, i64 32
  store i32 1, ptr %52, align 8, !tbaa !60
  %53 = load ptr, ptr %7, align 8, !tbaa !36
  %54 = getelementptr i8, ptr %53, i64 32
  %55 = load ptr, ptr %54, align 8, !tbaa !14
  %56 = tail call ptr @PyObject_Call(ptr noundef %55, ptr noundef nonnull %27, ptr noundef null) #8
  %57 = icmp eq ptr %56, null
  br i1 %57, label %58, label %call_with_frame.exit

58:                                               ; preds = %51
  tail call void @_PyTraceback_Add(ptr noundef nonnull @.str.49, ptr noundef nonnull @.str.43, i32 noundef 493) #8
  %59 = getelementptr inbounds nuw i8, ptr %0, i64 16
  %60 = load ptr, ptr %59, align 8, !tbaa !39
  %61 = tail call i32 @PyExpat_XML_StopParser(ptr noundef %60, i8 noundef zeroext 0) #8
  br label %call_with_frame.exit

call_with_frame.exit:                             ; preds = %51, %58
  store i32 0, ptr %52, align 8, !tbaa !60
  %62 = load i32, ptr %27, align 8, !tbaa !13
  %.not.i27 = icmp sgt i32 %62, -1
  br i1 %.not.i27, label %63, label %Py_DECREF.exit28

63:                                               ; preds = %call_with_frame.exit
  %64 = add nsw i32 %62, -1
  store i32 %64, ptr %27, align 8, !tbaa !13
  %65 = icmp eq i32 %64, 0
  br i1 %65, label %66, label %Py_DECREF.exit28

66:                                               ; preds = %63
  tail call void @_Py_Dealloc(ptr noundef nonnull %27) #8
  br label %Py_DECREF.exit28

Py_DECREF.exit28:                                 ; preds = %call_with_frame.exit, %63, %66
  br i1 %57, label %67, label %90

67:                                               ; preds = %Py_DECREF.exit28
  %68 = load ptr, ptr @handler_info, align 16, !tbaa !40
  %.not15.i.i30 = icmp eq ptr %68, null
  br i1 %.not15.i.i30, label %flag_error.exit38, label %.lr.ph.i.i31

.lr.ph.i.i31:                                     ; preds = %67
  %69 = getelementptr inbounds nuw i8, ptr %0, i64 16
  br label %.lr.ph.split.us.i.i32

.lr.ph.split.us.i.i32:                            ; preds = %Py_DECREF.exit.us.i.i36, %.lr.ph.i.i31
  %70 = phi ptr [ %86, %Py_DECREF.exit.us.i.i36 ], [ @handler_info, %.lr.ph.i.i31 ]
  %71 = phi i64 [ %85, %Py_DECREF.exit.us.i.i36 ], [ 0, %.lr.ph.i.i31 ]
  %.016.us.i.i33 = phi i32 [ %84, %Py_DECREF.exit.us.i.i36 ], [ 0, %.lr.ph.i.i31 ]
  %72 = load ptr, ptr %7, align 8, !tbaa !36
  %73 = getelementptr ptr, ptr %72, i64 %71
  %74 = load ptr, ptr %73, align 8, !tbaa !14
  %.not14.us.i.i34 = icmp eq ptr %74, null
  br i1 %.not14.us.i.i34, label %Py_DECREF.exit.us.i.i36, label %75

75:                                               ; preds = %.lr.ph.split.us.i.i32
  store ptr null, ptr %73, align 8, !tbaa !14
  %76 = load i32, ptr %74, align 8, !tbaa !13
  %.not.i.us.i.i35 = icmp sgt i32 %76, -1
  br i1 %.not.i.us.i.i35, label %77, label %Py_DECREF.exit.us.i.i36

77:                                               ; preds = %75
  %78 = add nsw i32 %76, -1
  store i32 %78, ptr %74, align 8, !tbaa !13
  %79 = icmp eq i32 %78, 0
  br i1 %79, label %80, label %Py_DECREF.exit.us.i.i36

80:                                               ; preds = %77
  tail call void @_Py_Dealloc(ptr noundef nonnull %74) #8
  br label %Py_DECREF.exit.us.i.i36

Py_DECREF.exit.us.i.i36:                          ; preds = %80, %77, %75, %.lr.ph.split.us.i.i32
  %81 = getelementptr inbounds nuw i8, ptr %70, i64 8
  %82 = load ptr, ptr %81, align 8, !tbaa !56
  %83 = load ptr, ptr %69, align 8, !tbaa !39
  tail call void %82(ptr noundef %83, ptr noundef null) #8
  %84 = add i32 %.016.us.i.i33, 1
  %85 = sext i32 %84 to i64
  %86 = getelementptr [64 x %struct.HandlerInfo], ptr @handler_info, i64 0, i64 %85
  %87 = load ptr, ptr %86, align 16, !tbaa !40
  %.not.us.i.i37 = icmp eq ptr %87, null
  br i1 %.not.us.i.i37, label %flag_error.exit38, label %.lr.ph.split.us.i.i32, !llvm.loop !45

flag_error.exit38:                                ; preds = %Py_DECREF.exit.us.i.i36, %67
  %88 = getelementptr inbounds nuw i8, ptr %0, i64 16
  %89 = load ptr, ptr %88, align 8, !tbaa !39
  tail call void @PyExpat_XML_SetExternalEntityRefHandler(ptr noundef %89, ptr noundef nonnull @error_external_entity_ref_handler) #8
  br label %Py_DECREF.exit

90:                                               ; preds = %Py_DECREF.exit28
  %91 = load i32, ptr %56, align 8, !tbaa !13
  %.not.i = icmp sgt i32 %91, -1
  br i1 %.not.i, label %92, label %Py_DECREF.exit

92:                                               ; preds = %90
  %93 = add nsw i32 %91, -1
  store i32 %93, ptr %56, align 8, !tbaa !13
  %94 = icmp eq i32 %93, 0
  br i1 %94, label %95, label %Py_DECREF.exit

95:                                               ; preds = %92
  tail call void @_Py_Dealloc(ptr noundef nonnull %56) #8
  br label %Py_DECREF.exit

Py_DECREF.exit:                                   ; preds = %95, %92, %90, %6, %flush_character_buffer.exit, %10, %flag_error.exit38, %flag_error.exit
  ret void
}